; Function Attrs: mustprogress uwtable
define void @_ZN7rocksdb10Checkpoint18ExportColumnFamilyEPNS_18ColumnFamilyHandleERKNSt7__cxx1112basic_stringIcSt11char_traitsIcESaIcEEEPPNS_25ExportImportFilesMetaDataE(ptr dead_on_unwind noalias nonnull writable sret(%"class.rocksdb::Status") align 8 %0, ptr nonnull readnone align 8 captures(none) %1, ptr readnone captures(none) %2, ptr nonnull readnone align 8 captures(none) %3, ptr readnone captures(none) %4) unnamed_addr #4 align 2 {
  %6 = alloca %"class.rocksdb::Slice", align 8
  %7 = alloca %"class.rocksdb::Slice", align 8
  call void @llvm.lifetime.start.p0(i64 16, ptr nonnull %6) #25
  store ptr @.str, ptr %6, align 8, !tbaa !31
  %8 = getelementptr inbounds nuw i8, ptr %6, i64 8
  store i64 0, ptr %8, align 8, !tbaa !33
  call void @llvm.lifetime.start.p0(i64 16, ptr nonnull %7) #25
  store ptr @.str, ptr %7, align 8, !tbaa !31
  %9 = getelementptr inbounds nuw i8, ptr %7, i64 8
  store i64 0, ptr %9, align 8, !tbaa !33
  call void @_ZN7rocksdb6StatusC2ENS0_4CodeENS0_7SubCodeERKNS_5SliceES5_NS0_8SeverityE(ptr noundef nonnull align 8 dereferenceable(16) %0, i8 noundef zeroext 3, i8 noundef zeroext 0, ptr noundef nonnull align 8 dereferenceable(16) %6, ptr noundef nonnull align 8 dereferenceable(16) %7, i8 noundef zeroext 0)
  call void @llvm.lifetime.end.p0(i64 16, ptr nonnull %7) #25
  call void @llvm.lifetime.end.p0(i64 16, ptr nonnull %6) #25
  ret void
}